target datalayout = "e-m:e-p270:32:32-p271:32:32-p272:64:64-i64:64-i128:128-f80:128-n8:16:32:64-S128"
target triple = "x86_64-pc-linux-gnu"

%struct.pmix_object_t = type { %union.pthread_mutex_t, ptr, i32, %struct.pmix_tma }
%union.pthread_mutex_t = type { %struct.__pthread_mutex_s }
%struct.__pthread_mutex_s = type { i32, i32, i32, i32, i32, i16, i16, %struct.__pthread_internal_list }
%struct.__pthread_internal_list = type { ptr, ptr }
%struct.pmix_tma = type { ptr, ptr, ptr, ptr, ptr, ptr, ptr, ptr }
%struct.pmix_list_item_t = type { %struct.pmix_object_t, ptr, ptr, i32 }
%struct.pmix_proc = type { [256 x i8], i32 }
%struct.pmix_iof_cache_t = type { %struct.pmix_list_item_t, %struct.pmix_proc, i16, ptr, ptr, i64 }

; Function Attrs: nounwind uwtable
define internal void @iodes(ptr noundef %0) #0 {
  %2 = alloca ptr, align 8
  store ptr %0, ptr %2, align 8, !tbaa !8
  br label %3

3:                                                ; preds = %1
  %4 = load ptr, ptr %2, align 8, !tbaa !8
  %5 = getelementptr inbounds nuw %struct.pmix_iof_cache_t, ptr %4, i32 0, i32 3
  %6 = load ptr, ptr %5, align 8, !tbaa !256
  call void @PMIx_Byte_object_free(ptr noundef %6, i64 noundef 1)
  %7 = load ptr, ptr %2, align 8, !tbaa !8
  %8 = getelementptr inbounds nuw %struct.pmix_iof_cache_t, ptr %7, i32 0, i32 3
  store ptr null, ptr %8, align 8, !tbaa !256
  br label %9

9:                                                ; preds = %3
  %10 = load ptr, ptr %2, align 8, !tbaa !8
  %11 = getelementptr inbounds nuw %struct.pmix_iof_cache_t, ptr %10, i32 0, i32 5
  %12 = load i64, ptr %11, align 8, !tbaa !254
  %13 = icmp ult i64 0, %12
  br i1 %13, label %14, label %25

14:                                               ; preds = %9
  br label %15

15:                                               ; preds = %14
  %16 = load ptr, ptr %2, align 8, !tbaa !8
  %17 = getelementptr inbounds nuw %struct.pmix_iof_cache_t, ptr %16, i32 0, i32 4
  %18 = load ptr, ptr %17, align 8, !tbaa !255
  %19 = load ptr, ptr %2, align 8, !tbaa !8
  %20 = getelementptr inbounds nuw %struct.pmix_iof_cache_t, ptr %19, i32 0, i32 5
  %21 = load i64, ptr %20, align 8, !tbaa !254
  call void @PMIx_Info_free(ptr noundef %18, i64 noundef %21)
  %22 = load ptr, ptr %2, align 8, !tbaa !8
  %23 = getelementptr inbounds nuw %struct.pmix_iof_cache_t, ptr %22, i32 0, i32 4
  store ptr null, ptr %23, align 8, !tbaa !255
  br label %24

24:                                               ; preds = %15
  br label %25

25:                                               ; preds = %24, %9
  ret void
}