; Function Attrs: nounwind uwtable
define internal void @iodes(ptr noundef captures(none) %0) #0 {
  %2 = getelementptr inbounds nuw i8, ptr %0, i64 408
  %3 = load ptr, ptr %2, align 8, !tbaa !418
  tail call void @PMIx_Byte_object_free(ptr noundef %3, i64 noundef 1) #19
  store ptr null, ptr %2, align 8, !tbaa !418
  %4 = getelementptr inbounds nuw i8, ptr %0, i64 424
  %5 = load i64, ptr %4, align 8, !tbaa !420
  %.not = icmp eq i64 %5, 0
  br i1 %.not, label %9, label %6

6:                                                ; preds = %1
  %7 = getelementptr inbounds nuw i8, ptr %0, i64 416
  %8 = load ptr, ptr %7, align 8, !tbaa !421
  tail call void @PMIx_Info_free(ptr noundef %8, i64 noundef %5) #19
  store ptr null, ptr %7, align 8, !tbaa !421
  br label %9

9:                                                ; preds = %6, %1
  ret void
}